target datalayout = "e-m:e-p270:32:32-p271:32:32-p272:64:64-i64:64-i128:128-f80:128-n8:16:32:64-S128"
target triple = "x86_64-pc-linux-gnu"

%struct.AVChannelLayout = type { i32, i32, %union.anon.1, ptr }
%union.anon.1 = type { i64 }

@.str.4 = private unnamed_addr constant [57 x i8] c"%sput channel '%s' not available from %sput layout '%s'\0A\00", align 1
@.str.5 = private unnamed_addr constant [56 x i8] c"%sput channel #%d not available from %sput layout '%s'\0A\00", align 1

; Function Attrs: nounwind uwtable
define internal i32 @check_idx_and_id(ptr noundef %0, i32 noundef %1, i32 noundef %2, ptr noundef %3, ptr noundef %4) #1 {
  %6 = alloca i32, align 4
  %7 = alloca ptr, align 8
  %8 = alloca i32, align 4
  %9 = alloca i32, align 4
  %10 = alloca ptr, align 8
  %11 = alloca ptr, align 8
  %12 = alloca [64 x i8], align 16
  %13 = alloca [256 x i8], align 16
  %14 = alloca i32, align 4
  %15 = alloca i32, align 4
  store ptr %0, ptr %7, align 8, !tbaa !4
  store i32 %1, ptr %8, align 4, !tbaa !25
  store i32 %2, ptr %9, align 4, !tbaa !25
  store ptr %3, ptr %10, align 8, !tbaa !76
  store ptr %4, ptr %11, align 8, !tbaa !28
  call void @llvm.lifetime.start.p0(i64 64, ptr %12) #8
  call void @llvm.lifetime.start.p0(i64 256, ptr %13) #8
  call void @llvm.lifetime.start.p0(i64 4, ptr %14) #8
  %16 = load ptr, ptr %10, align 8, !tbaa !76
  %17 = getelementptr inbounds nuw %struct.AVChannelLayout, ptr %16, i32 0, i32 1
  %18 = load i32, ptr %17, align 4, !tbaa !78
  store i32 %18, ptr %14, align 4, !tbaa !25
  %19 = load i32, ptr %8, align 4, !tbaa !25
  %20 = icmp slt i32 %19, 0
  br i1 %20, label %25, label %21

21:                                               ; preds = %5
  %22 = load i32, ptr %8, align 4, !tbaa !25
  %23 = load i32, ptr %14, align 4, !tbaa !25
  %24 = icmp sge i32 %22, %23
  br i1 %24, label %25, label %47

25:                                               ; preds = %21, %5
  %26 = load ptr, ptr %10, align 8, !tbaa !76
  %27 = getelementptr inbounds [256 x i8], ptr %13, i64 0, i64 0
  %28 = call i32 @av_channel_layout_describe(ptr noundef %26, ptr noundef %27, i64 noundef 256)
  %29 = load i32, ptr %9, align 4, !tbaa !25
  %30 = icmp sge i32 %29, 0
  br i1 %30, label %31, label %40

31:                                               ; preds = %25
  %32 = getelementptr inbounds [64 x i8], ptr %12, i64 0, i64 0
  %33 = load i32, ptr %9, align 4, !tbaa !25
  %34 = call i32 @av_channel_name(ptr noundef %32, i64 noundef 64, i32 noundef %33)
  %35 = load ptr, ptr %7, align 8, !tbaa !4
  %36 = load ptr, ptr %11, align 8, !tbaa !28
  %37 = getelementptr inbounds [64 x i8], ptr %12, i64 0, i64 0
  %38 = load ptr, ptr %11, align 8, !tbaa !28
  %39 = getelementptr inbounds [256 x i8], ptr %13, i64 0, i64 0
  call void (ptr, i32, ptr, ...) @av_log(ptr noundef %35, i32 noundef 16, ptr noundef @.str.4, ptr noundef %36, ptr noundef %37, ptr noundef %38, ptr noundef %39)
  br label %46

40:                                               ; preds = %25
  %41 = load ptr, ptr %7, align 8, !tbaa !4
  %42 = load ptr, ptr %11, align 8, !tbaa !28
  %43 = load i32, ptr %8, align 4, !tbaa !25
  %44 = load ptr, ptr %11, align 8, !tbaa !28
  %45 = getelementptr inbounds [256 x i8], ptr %13, i64 0, i64 0
  call void (ptr, i32, ptr, ...) @av_log(ptr noundef %41, i32 noundef 16, ptr noundef @.str.5, ptr noundef %42, i32 noundef %43, ptr noundef %44, ptr noundef %45)
  br label %46

46:                                               ; preds = %40, %31
  store i32 -22, ptr %6, align 4
  store i32 1, ptr %15, align 4
  br label %48

47:                                               ; preds = %21
  store i32 0, ptr %6, align 4
  store i32 1, ptr %15, align 4
  br label %48

48:                                               ; preds = %47, %46
  call void @llvm.lifetime.end.p0(i64 4, ptr %14) #8
  call void @llvm.lifetime.end.p0(i64 256, ptr %13) #8
  call void @llvm.lifetime.end.p0(i64 64, ptr %12) #8
  %49 = load i32, ptr %6, align 4
  ret i32 %49
}