; Function Attrs: nounwind uwtable
define internal fastcc range(i32 -22, 1) i32 @check_idx_and_id(ptr noundef %0, i32 noundef %1, i32 noundef %2, ptr noundef %3, ptr noundef %4) unnamed_addr #1 {
  %6 = alloca [64 x i8], align 16
  %7 = alloca [256 x i8], align 16
  call void @llvm.lifetime.start.p0(i64 64, ptr nonnull %6) #10
  call void @llvm.lifetime.start.p0(i64 256, ptr nonnull %7) #10
  %8 = icmp slt i32 %1, 0
  br i1 %8, label %12, label %9

9:                                                ; preds = %5
  %10 = getelementptr inbounds nuw i8, ptr %3, i64 4
  %11 = load i32, ptr %10, align 4, !tbaa !67
  %.not = icmp slt i32 %1, %11
  br i1 %.not, label %18, label %12

12:                                               ; preds = %9, %5
  %13 = call i32 @av_channel_layout_describe(ptr noundef %3, ptr noundef nonnull %7, i64 noundef 256) #10
  %14 = icmp sgt i32 %2, -1
  br i1 %14, label %15, label %17

15:                                               ; preds = %12
  %16 = call i32 @av_channel_name(ptr noundef nonnull %6, i64 noundef 64, i32 noundef %2) #10
  call void (ptr, i32, ptr, ...) @av_log(ptr noundef %0, i32 noundef 16, ptr noundef nonnull @.str.4, ptr noundef %4, ptr noundef nonnull %6, ptr noundef %4, ptr noundef nonnull %7) #10
  br label %18

17:                                               ; preds = %12
  call void (ptr, i32, ptr, ...) @av_log(ptr noundef %0, i32 noundef 16, ptr noundef nonnull @.str.5, ptr noundef %4, i32 noundef %1, ptr noundef %4, ptr noundef nonnull %7) #10
  br label %18

18:                                               ; preds = %9, %15, %17
  %.0 = phi i32 [ -22, %17 ], [ -22, %15 ], [ 0, %9 ]
  call void @llvm.lifetime.end.p0(i64 256, ptr nonnull %7) #10
  call void @llvm.lifetime.end.p0(i64 64, ptr nonnull %6) #10
  ret i32 %.0
}